; Function Attrs: nounwind uwtable
define dso_local void @php_error_docref1(ptr noundef %0, ptr noundef %1, i32 noundef %2, ptr noundef %3, ...) local_unnamed_addr #2 {
  %5 = alloca [1 x %struct.__va_list_tag], align 16
  call void @llvm.lifetime.start.p0(i64 24, ptr nonnull %5) #28
  call void @llvm.va_start.p0(ptr nonnull %5)
  call void @php_verror(ptr noundef %0, ptr noundef %1, i32 noundef %2, ptr noundef %3, ptr noundef nonnull %5)
  call void @llvm.va_end.p0(ptr nonnull %5)
  call void @llvm.lifetime.end.p0(i64 24, ptr nonnull %5) #28
  ret void
}